target datalayout = "e-m:e-p270:32:32-p271:32:32-p272:64:64-i64:64-i128:128-f80:128-n8:16:32:64-S128"
target triple = "x86_64-pc-linux-gnu"

%struct.ARKodeMemRec = type { ptr, double, ptr, i32, i32, double, double, ptr, i32, double, ptr, i32, i32, ptr, ptr, i32, ptr, ptr, i32, ptr, ptr, ptr, ptr, ptr, ptr, ptr, ptr, ptr, ptr, ptr, ptr, ptr, ptr, ptr, i32, ptr, ptr, i32, ptr, i32, ptr, ptr, ptr, ptr, ptr, ptr, ptr, ptr, ptr, ptr, ptr, ptr, ptr, ptr, ptr, ptr, ptr, ptr, ptr, ptr, ptr, ptr, ptr, ptr, ptr, ptr, i32, ptr, ptr, ptr, ptr, ptr, ptr, ptr, i32, ptr, ptr, ptr, i32, ptr, ptr, ptr, ptr, ptr, ptr, ptr, i32, i32, i32, i32, double, double, double, double, double, double, double, double, double, double, i32, ptr, i64, i32, i32, i32, i32, i64, i64, i32, i64, i64, i64, i64, i64, i64, i64, double, double, double, double, double, i32, double, double, i32, i32, i32, i32, i32, i32, i32, i32, ptr, i32, ptr, ptr, ptr, ptr, i32, i32, i32 }
%struct.ARKodeARKStepMemRec = type { ptr, ptr, i32, i32, i32, i32, i32, i32, ptr, ptr, ptr, ptr, ptr, ptr, i32, i32, i32, i32, ptr, ptr, ptr, ptr, i32, ptr, double, double, double, double, i32, double, double, double, double, double, double, i32, i64, i32, i32, i32, ptr, ptr, ptr, ptr, ptr, ptr, i32, ptr, ptr, ptr, ptr, ptr, ptr, i32, i32, i64, i64, i64, i64, i64, ptr, ptr, i32, i32, i32, double, double, ptr, i32, ptr, ptr }
%struct.ARKodeButcherTableMem = type { i32, i32, i32, ptr, ptr, ptr, ptr }

@.str = private unnamed_addr constant [123 x i8] c"generated/home/dtcxzyw/WorkSpace/Projects/compilers/llvm-opt-benchmark/bench/sundials/sundials/src/arkode/arkode_arkstep.c\00", align 1
@.str.57 = private unnamed_addr constant [33 x i8] c"Time step module memory is NULL.\00", align 1
@__func__.arkStep_SetButcherTables = private unnamed_addr constant [25 x i8] c"arkStep_SetButcherTables\00", align 1
@.str.58 = private unnamed_addr constant [46 x i8] c"No ImEx method at requested order, using q=5.\00", align 1
@.str.59 = private unnamed_addr constant [50 x i8] c"No implicit method at requested order, using q=5.\00", align 1
@.str.60 = private unnamed_addr constant [50 x i8] c"No explicit method at requested order, using q=9.\00", align 1

; Function Attrs: nounwind uwtable
define i32 @arkStep_SetButcherTables(ptr noundef %0) #0 {
  %2 = alloca i32, align 4
  %3 = alloca ptr, align 8
  %4 = alloca i32, align 4
  %5 = alloca i32, align 4
  %6 = alloca ptr, align 8
  %7 = alloca i64, align 8
  %8 = alloca i64, align 8
  %9 = alloca i32, align 4
  store ptr %0, ptr %3, align 8, !tbaa !15
  call void @llvm.lifetime.start.p0(i64 4, ptr %4) #8
  call void @llvm.lifetime.start.p0(i64 4, ptr %5) #8
  call void @llvm.lifetime.start.p0(i64 8, ptr %6) #8
  call void @llvm.lifetime.start.p0(i64 8, ptr %7) #8
  call void @llvm.lifetime.start.p0(i64 8, ptr %8) #8
  %10 = load ptr, ptr %3, align 8, !tbaa !15
  %11 = getelementptr inbounds nuw %struct.ARKodeMemRec, ptr %10, i32 0, i32 19
  %12 = load ptr, ptr %11, align 8, !tbaa !74
  %13 = icmp eq ptr %12, null
  br i1 %13, label %14, label %15

14:                                               ; preds = %1
  call void (ptr, i32, i32, ptr, ptr, ptr, ...) @arkProcessError(ptr noundef null, i32 noundef -21, i32 noundef 2206, ptr noundef @__func__.arkStep_SetButcherTables, ptr noundef @.str, ptr noundef @.str.57)
  store i32 -21, ptr %2, align 4
  store i32 1, ptr %9, align 4
  br label %181

15:                                               ; preds = %1
  %16 = load ptr, ptr %3, align 8, !tbaa !15
  %17 = getelementptr inbounds nuw %struct.ARKodeMemRec, ptr %16, i32 0, i32 19
  %18 = load ptr, ptr %17, align 8, !tbaa !74
  store ptr %18, ptr %6, align 8, !tbaa !17
  %19 = load ptr, ptr %6, align 8, !tbaa !17
  %20 = getelementptr inbounds nuw %struct.ARKodeARKStepMemRec, ptr %19, i32 0, i32 18
  %21 = load ptr, ptr %20, align 8, !tbaa !154
  %22 = icmp ne ptr %21, null
  br i1 %22, label %28, label %23

23:                                               ; preds = %15
  %24 = load ptr, ptr %6, align 8, !tbaa !17
  %25 = getelementptr inbounds nuw %struct.ARKodeARKStepMemRec, ptr %24, i32 0, i32 19
  %26 = load ptr, ptr %25, align 8, !tbaa !142
  %27 = icmp ne ptr %26, null
  br i1 %27, label %28, label %29

28:                                               ; preds = %23, %15
  store i32 0, ptr %2, align 4
  store i32 1, ptr %9, align 4
  br label %181

29:                                               ; preds = %23
  store i32 -1, ptr %5, align 4, !tbaa !13
  store i32 -1, ptr %4, align 4, !tbaa !13
  %30 = load ptr, ptr %6, align 8, !tbaa !17
  %31 = getelementptr inbounds nuw %struct.ARKodeARKStepMemRec, ptr %30, i32 0, i32 5
  %32 = load i32, ptr %31, align 4, !tbaa !75
  %33 = icmp ne i32 %32, 0
  br i1 %33, label %34, label %50

34:                                               ; preds = %29
  %35 = load ptr, ptr %6, align 8, !tbaa !17
  %36 = getelementptr inbounds nuw %struct.ARKodeARKStepMemRec, ptr %35, i32 0, i32 6
  %37 = load i32, ptr %36, align 8, !tbaa !81
  %38 = icmp ne i32 %37, 0
  br i1 %38, label %39, label %50

39:                                               ; preds = %34
  %40 = load ptr, ptr %6, align 8, !tbaa !17
  %41 = getelementptr inbounds nuw %struct.ARKodeARKStepMemRec, ptr %40, i32 0, i32 14
  %42 = load i32, ptr %41, align 8, !tbaa !150
  switch i32 %42, label %47 [
    i32 2, label %43
    i32 3, label %44
    i32 4, label %45
    i32 5, label %46
  ]

43:                                               ; preds = %39
  store i32 15, ptr %4, align 4, !tbaa !13
  store i32 123, ptr %5, align 4, !tbaa !13
  br label %49

44:                                               ; preds = %39
  store i32 2, ptr %4, align 4, !tbaa !13
  store i32 104, ptr %5, align 4, !tbaa !13
  br label %49

45:                                               ; preds = %39
  store i32 4, ptr %4, align 4, !tbaa !13
  store i32 109, ptr %5, align 4, !tbaa !13
  br label %49

46:                                               ; preds = %39
  store i32 9, ptr %4, align 4, !tbaa !13
  store i32 111, ptr %5, align 4, !tbaa !13
  br label %49

47:                                               ; preds = %39
  %48 = load ptr, ptr %3, align 8, !tbaa !15
  call void (ptr, i32, i32, ptr, ptr, ptr, ...) @arkProcessError(ptr noundef %48, i32 noundef 99, i32 noundef 2243, ptr noundef @__func__.arkStep_SetButcherTables, ptr noundef @.str, ptr noundef @.str.58)
  store i32 9, ptr %4, align 4, !tbaa !13
  store i32 111, ptr %5, align 4, !tbaa !13
  br label %49

49:                                               ; preds = %47, %46, %45, %44, %43
  br label %84

50:                                               ; preds = %34, %29
  %51 = load ptr, ptr %6, align 8, !tbaa !17
  %52 = getelementptr inbounds nuw %struct.ARKodeARKStepMemRec, ptr %51, i32 0, i32 6
  %53 = load i32, ptr %52, align 8, !tbaa !81
  %54 = icmp ne i32 %53, 0
  br i1 %54, label %55, label %67

55:                                               ; preds = %50
  %56 = load ptr, ptr %6, align 8, !tbaa !17
  %57 = getelementptr inbounds nuw %struct.ARKodeARKStepMemRec, ptr %56, i32 0, i32 14
  %58 = load i32, ptr %57, align 8, !tbaa !150
  switch i32 %58, label %64 [
    i32 1, label %59
    i32 2, label %60
    i32 3, label %61
    i32 4, label %62
    i32 5, label %63
  ]

59:                                               ; preds = %55
  store i32 124, ptr %5, align 4, !tbaa !13
  br label %66

60:                                               ; preds = %55
  store i32 100, ptr %5, align 4, !tbaa !13
  br label %66

61:                                               ; preds = %55
  store i32 104, ptr %5, align 4, !tbaa !13
  br label %66

62:                                               ; preds = %55
  store i32 107, ptr %5, align 4, !tbaa !13
  br label %66

63:                                               ; preds = %55
  store i32 111, ptr %5, align 4, !tbaa !13
  br label %66

64:                                               ; preds = %55
  %65 = load ptr, ptr %3, align 8, !tbaa !15
  call void (ptr, i32, i32, ptr, ptr, ptr, ...) @arkProcessError(ptr noundef %65, i32 noundef 99, i32 noundef 2262, ptr noundef @__func__.arkStep_SetButcherTables, ptr noundef @.str, ptr noundef @.str.59)
  store i32 111, ptr %5, align 4, !tbaa !13
  br label %66

66:                                               ; preds = %64, %63, %62, %61, %60, %59
  br label %83

67:                                               ; preds = %50
  %68 = load ptr, ptr %6, align 8, !tbaa !17
  %69 = getelementptr inbounds nuw %struct.ARKodeARKStepMemRec, ptr %68, i32 0, i32 14
  %70 = load i32, ptr %69, align 8, !tbaa !150
  switch i32 %70, label %80 [
    i32 1, label %71
    i32 2, label %72
    i32 3, label %73
    i32 4, label %74
    i32 5, label %75
    i32 6, label %76
    i32 7, label %77
    i32 8, label %78
    i32 9, label %79
  ]

71:                                               ; preds = %67
  store i32 22, ptr %4, align 4, !tbaa !13
  br label %82

72:                                               ; preds = %67
  store i32 0, ptr %4, align 4, !tbaa !13
  br label %82

73:                                               ; preds = %67
  store i32 1, ptr %4, align 4, !tbaa !13
  br label %82

74:                                               ; preds = %67
  store i32 3, ptr %4, align 4, !tbaa !13
  br label %82

75:                                               ; preds = %67
  store i32 6, ptr %4, align 4, !tbaa !13
  br label %82

76:                                               ; preds = %67
  store i32 10, ptr %4, align 4, !tbaa !13
  br label %82

77:                                               ; preds = %67
  store i32 19, ptr %4, align 4, !tbaa !13
  br label %82

78:                                               ; preds = %67
  store i32 11, ptr %4, align 4, !tbaa !13
  br label %82

79:                                               ; preds = %67
  store i32 21, ptr %4, align 4, !tbaa !13
  br label %82

80:                                               ; preds = %67
  %81 = load ptr, ptr %3, align 8, !tbaa !15
  call void (ptr, i32, i32, ptr, ptr, ptr, ...) @arkProcessError(ptr noundef %81, i32 noundef 99, i32 noundef 2284, ptr noundef @__func__.arkStep_SetButcherTables, ptr noundef @.str, ptr noundef @.str.60)
  store i32 21, ptr %4, align 4, !tbaa !13
  br label %82

82:                                               ; preds = %80, %79, %78, %77, %76, %75, %74, %73, %72, %71
  br label %83

83:                                               ; preds = %82, %66
  br label %84

84:                                               ; preds = %83, %49
  %85 = load i32, ptr %4, align 4, !tbaa !13
  %86 = icmp sgt i32 %85, -1
  br i1 %86, label %87, label %92

87:                                               ; preds = %84
  %88 = load i32, ptr %4, align 4, !tbaa !13
  %89 = call ptr @ARKodeButcherTable_LoadERK(i32 noundef %88)
  %90 = load ptr, ptr %6, align 8, !tbaa !17
  %91 = getelementptr inbounds nuw %struct.ARKodeARKStepMemRec, ptr %90, i32 0, i32 18
  store ptr %89, ptr %91, align 8, !tbaa !154
  br label %92

92:                                               ; preds = %87, %84
  %93 = load i32, ptr %5, align 4, !tbaa !13
  %94 = icmp sgt i32 %93, -1
  br i1 %94, label %95, label %100

95:                                               ; preds = %92
  %96 = load i32, ptr %5, align 4, !tbaa !13
  %97 = call ptr @ARKodeButcherTable_LoadDIRK(i32 noundef %96)
  %98 = load ptr, ptr %6, align 8, !tbaa !17
  %99 = getelementptr inbounds nuw %struct.ARKodeARKStepMemRec, ptr %98, i32 0, i32 19
  store ptr %97, ptr %99, align 8, !tbaa !142
  br label %100

100:                                              ; preds = %95, %92
  %101 = load ptr, ptr %6, align 8, !tbaa !17
  %102 = getelementptr inbounds nuw %struct.ARKodeARKStepMemRec, ptr %101, i32 0, i32 18
  %103 = load ptr, ptr %102, align 8, !tbaa !154
  call void @ARKodeButcherTable_Space(ptr noundef %103, ptr noundef %8, ptr noundef %7)
  %104 = load i64, ptr %8, align 8, !tbaa !198
  %105 = load ptr, ptr %3, align 8, !tbaa !15
  %106 = getelementptr inbounds nuw %struct.ARKodeMemRec, ptr %105, i32 0, i32 116
  %107 = load i64, ptr %106, align 8, !tbaa !84
  %108 = add nsw i64 %107, %104
  store i64 %108, ptr %106, align 8, !tbaa !84
  %109 = load i64, ptr %7, align 8, !tbaa !198
  %110 = load ptr, ptr %3, align 8, !tbaa !15
  %111 = getelementptr inbounds nuw %struct.ARKodeMemRec, ptr %110, i32 0, i32 115
  %112 = load i64, ptr %111, align 8, !tbaa !85
  %113 = add nsw i64 %112, %109
  store i64 %113, ptr %111, align 8, !tbaa !85
  %114 = load ptr, ptr %6, align 8, !tbaa !17
  %115 = getelementptr inbounds nuw %struct.ARKodeARKStepMemRec, ptr %114, i32 0, i32 19
  %116 = load ptr, ptr %115, align 8, !tbaa !142
  call void @ARKodeButcherTable_Space(ptr noundef %116, ptr noundef %8, ptr noundef %7)
  %117 = load i64, ptr %8, align 8, !tbaa !198
  %118 = load ptr, ptr %3, align 8, !tbaa !15
  %119 = getelementptr inbounds nuw %struct.ARKodeMemRec, ptr %118, i32 0, i32 116
  %120 = load i64, ptr %119, align 8, !tbaa !84
  %121 = add nsw i64 %120, %117
  store i64 %121, ptr %119, align 8, !tbaa !84
  %122 = load i64, ptr %7, align 8, !tbaa !198
  %123 = load ptr, ptr %3, align 8, !tbaa !15
  %124 = getelementptr inbounds nuw %struct.ARKodeMemRec, ptr %123, i32 0, i32 115
  %125 = load i64, ptr %124, align 8, !tbaa !85
  %126 = add nsw i64 %125, %122
  store i64 %126, ptr %124, align 8, !tbaa !85
  %127 = load ptr, ptr %6, align 8, !tbaa !17
  %128 = getelementptr inbounds nuw %struct.ARKodeARKStepMemRec, ptr %127, i32 0, i32 18
  %129 = load ptr, ptr %128, align 8, !tbaa !154
  %130 = icmp ne ptr %129, null
  br i1 %130, label %131, label %153

131:                                              ; preds = %100
  %132 = load ptr, ptr %6, align 8, !tbaa !17
  %133 = getelementptr inbounds nuw %struct.ARKodeARKStepMemRec, ptr %132, i32 0, i32 18
  %134 = load ptr, ptr %133, align 8, !tbaa !154
  %135 = getelementptr inbounds nuw %struct.ARKodeButcherTableMem, ptr %134, i32 0, i32 2
  %136 = load i32, ptr %135, align 8, !tbaa !223
  %137 = load ptr, ptr %6, align 8, !tbaa !17
  %138 = getelementptr inbounds nuw %struct.ARKodeARKStepMemRec, ptr %137, i32 0, i32 17
  store i32 %136, ptr %138, align 4, !tbaa !158
  %139 = load ptr, ptr %6, align 8, !tbaa !17
  %140 = getelementptr inbounds nuw %struct.ARKodeARKStepMemRec, ptr %139, i32 0, i32 18
  %141 = load ptr, ptr %140, align 8, !tbaa !154
  %142 = getelementptr inbounds nuw %struct.ARKodeButcherTableMem, ptr %141, i32 0, i32 0
  %143 = load i32, ptr %142, align 8, !tbaa !143
  %144 = load ptr, ptr %6, align 8, !tbaa !17
  %145 = getelementptr inbounds nuw %struct.ARKodeARKStepMemRec, ptr %144, i32 0, i32 14
  store i32 %143, ptr %145, align 8, !tbaa !150
  %146 = load ptr, ptr %6, align 8, !tbaa !17
  %147 = getelementptr inbounds nuw %struct.ARKodeARKStepMemRec, ptr %146, i32 0, i32 18
  %148 = load ptr, ptr %147, align 8, !tbaa !154
  %149 = getelementptr inbounds nuw %struct.ARKodeButcherTableMem, ptr %148, i32 0, i32 1
  %150 = load i32, ptr %149, align 4, !tbaa !151
  %151 = load ptr, ptr %6, align 8, !tbaa !17
  %152 = getelementptr inbounds nuw %struct.ARKodeARKStepMemRec, ptr %151, i32 0, i32 15
  store i32 %150, ptr %152, align 4, !tbaa !153
  br label %153

153:                                              ; preds = %131, %100
  %154 = load ptr, ptr %6, align 8, !tbaa !17
  %155 = getelementptr inbounds nuw %struct.ARKodeARKStepMemRec, ptr %154, i32 0, i32 19
  %156 = load ptr, ptr %155, align 8, !tbaa !142
  %157 = icmp ne ptr %156, null
  br i1 %157, label %158, label %180

158:                                              ; preds = %153
  %159 = load ptr, ptr %6, align 8, !tbaa !17
  %160 = getelementptr inbounds nuw %struct.ARKodeARKStepMemRec, ptr %159, i32 0, i32 19
  %161 = load ptr, ptr %160, align 8, !tbaa !142
  %162 = getelementptr inbounds nuw %struct.ARKodeButcherTableMem, ptr %161, i32 0, i32 2
  %163 = load i32, ptr %162, align 8, !tbaa !223
  %164 = load ptr, ptr %6, align 8, !tbaa !17
  %165 = getelementptr inbounds nuw %struct.ARKodeARKStepMemRec, ptr %164, i32 0, i32 17
  store i32 %163, ptr %165, align 4, !tbaa !158
  %166 = load ptr, ptr %6, align 8, !tbaa !17
  %167 = getelementptr inbounds nuw %struct.ARKodeARKStepMemRec, ptr %166, i32 0, i32 19
  %168 = load ptr, ptr %167, align 8, !tbaa !142
  %169 = getelementptr inbounds nuw %struct.ARKodeButcherTableMem, ptr %168, i32 0, i32 0
  %170 = load i32, ptr %169, align 8, !tbaa !143
  %171 = load ptr, ptr %6, align 8, !tbaa !17
  %172 = getelementptr inbounds nuw %struct.ARKodeARKStepMemRec, ptr %171, i32 0, i32 14
  store i32 %170, ptr %172, align 8, !tbaa !150
  %173 = load ptr, ptr %6, align 8, !tbaa !17
  %174 = getelementptr inbounds nuw %struct.ARKodeARKStepMemRec, ptr %173, i32 0, i32 19
  %175 = load ptr, ptr %174, align 8, !tbaa !142
  %176 = getelementptr inbounds nuw %struct.ARKodeButcherTableMem, ptr %175, i32 0, i32 1
  %177 = load i32, ptr %176, align 4, !tbaa !151
  %178 = load ptr, ptr %6, align 8, !tbaa !17
  %179 = getelementptr inbounds nuw %struct.ARKodeARKStepMemRec, ptr %178, i32 0, i32 15
  store i32 %177, ptr %179, align 4, !tbaa !153
  br label %180

180:                                              ; preds = %158, %153
  store i32 0, ptr %2, align 4
  store i32 1, ptr %9, align 4
  br label %181

181:                                              ; preds = %180, %28, %14
  call void @llvm.lifetime.end.p0(i64 8, ptr %8) #8
  call void @llvm.lifetime.end.p0(i64 8, ptr %7) #8
  call void @llvm.lifetime.end.p0(i64 8, ptr %6) #8
  call void @llvm.lifetime.end.p0(i64 4, ptr %5) #8
  call void @llvm.lifetime.end.p0(i64 4, ptr %4) #8
  %182 = load i32, ptr %2, align 4
  ret i32 %182
}