; Function Attrs: nounwind uwtable
define range(i32 -21, 1) i32 @arkStep_SetButcherTables(ptr noundef %0) local_unnamed_addr #0 {
  %2 = alloca i64, align 8
  %3 = alloca i64, align 8
  call void @llvm.lifetime.start.p0(i64 8, ptr nonnull %2) #13
  call void @llvm.lifetime.start.p0(i64 8, ptr nonnull %3) #13
  %4 = getelementptr inbounds nuw i8, ptr %0, i64 136
  %5 = load ptr, ptr %4, align 8, !tbaa !77
  %6 = icmp eq ptr %5, null
  br i1 %6, label %7, label %8

7:                                                ; preds = %1
  tail call void (ptr, i32, i32, ptr, ptr, ptr, ...) @arkProcessError(ptr noundef null, i32 noundef -21, i32 noundef 2206, ptr noundef nonnull @__func__.arkStep_SetButcherTables, ptr noundef nonnull @.str, ptr noundef nonnull @.str.57) #13
  br label %80

8:                                                ; preds = %1
  %9 = getelementptr inbounds nuw i8, ptr %5, i64 104
  %10 = load ptr, ptr %9, align 8, !tbaa !125
  %.not = icmp eq ptr %10, null
  br i1 %.not, label %11, label %80

11:                                               ; preds = %8
  %12 = getelementptr inbounds nuw i8, ptr %5, i64 112
  %13 = load ptr, ptr %12, align 8, !tbaa !124
  %.not44 = icmp eq ptr %13, null
  br i1 %.not44, label %14, label %80

14:                                               ; preds = %11
  %15 = getelementptr inbounds nuw i8, ptr %5, i64 28
  %16 = load i32, ptr %15, align 4, !tbaa !78
  %.not45 = icmp eq i32 %16, 0
  %.phi.trans.insert = getelementptr inbounds nuw i8, ptr %5, i64 32
  %.pre = load i32, ptr %.phi.trans.insert, align 8, !tbaa !84
  %17 = icmp eq i32 %.pre, 0
  br i1 %.not45, label %24, label %18

18:                                               ; preds = %14
  br i1 %17, label %.thread, label %19

19:                                               ; preds = %18
  %20 = getelementptr inbounds nuw i8, ptr %5, i64 88
  %21 = load i32, ptr %20, align 8, !tbaa !135
  %switch.tableidx = add i32 %21, -2
  %22 = icmp ult i32 %switch.tableidx, 4
  br i1 %22, label %switch.lookup, label %23

23:                                               ; preds = %19
  tail call void (ptr, i32, i32, ptr, ptr, ptr, ...) @arkProcessError(ptr noundef nonnull %0, i32 noundef 99, i32 noundef 2243, ptr noundef nonnull @__func__.arkStep_SetButcherTables, ptr noundef nonnull @.str, ptr noundef nonnull @.str.58) #13
  br label %38

24:                                               ; preds = %14
  br i1 %17, label %.thread, label %25

25:                                               ; preds = %24
  %26 = getelementptr inbounds nuw i8, ptr %5, i64 88
  %27 = load i32, ptr %26, align 8, !tbaa !135
  %switch.tableidx69 = add i32 %27, -1
  %28 = icmp ult i32 %switch.tableidx69, 5
  br i1 %28, label %switch.lookup68, label %29

29:                                               ; preds = %25
  tail call void (ptr, i32, i32, ptr, ptr, ptr, ...) @arkProcessError(ptr noundef nonnull %0, i32 noundef 99, i32 noundef 2262, ptr noundef nonnull @__func__.arkStep_SetButcherTables, ptr noundef nonnull @.str, ptr noundef nonnull @.str.59) #13
  br label %.thread56

.thread:                                          ; preds = %18, %24
  %30 = getelementptr inbounds nuw i8, ptr %5, i64 88
  %31 = load i32, ptr %30, align 8, !tbaa !135
  %switch.tableidx73 = add i32 %31, -1
  %32 = icmp ult i32 %switch.tableidx73, 9
  br i1 %32, label %switch.lookup72, label %33

33:                                               ; preds = %.thread
  tail call void (ptr, i32, i32, ptr, ptr, ptr, ...) @arkProcessError(ptr noundef nonnull %0, i32 noundef 99, i32 noundef 2284, ptr noundef nonnull @__func__.arkStep_SetButcherTables, ptr noundef nonnull @.str, ptr noundef nonnull @.str.60) #13
  br label %.thread60

switch.lookup72:                                  ; preds = %.thread
  %34 = zext nneg i32 %switch.tableidx73 to i64
  %switch.gep74 = getelementptr inbounds nuw [9 x i32], ptr @switch.table.arkStep_SetButcherTables.3, i64 0, i64 %34
  %switch.load75 = load i32, ptr %switch.gep74, align 4
  br label %.thread60

.thread60:                                        ; preds = %switch.lookup72, %33
  %.040.ph.ph = phi i32 [ 21, %33 ], [ %switch.load75, %switch.lookup72 ]
  %35 = tail call ptr @ARKodeButcherTable_LoadERK(i32 noundef %.040.ph.ph) #13
  store ptr %35, ptr %9, align 8, !tbaa !125
  br label %42

switch.lookup:                                    ; preds = %19
  %36 = zext nneg i32 %switch.tableidx to i64
  %switch.gep = getelementptr inbounds nuw [4 x i32], ptr @switch.table.arkStep_SetButcherTables, i64 0, i64 %36
  %switch.load = load i32, ptr %switch.gep, align 4
  %37 = zext nneg i32 %switch.tableidx to i64
  %switch.gep66 = getelementptr inbounds nuw [4 x i32], ptr @switch.table.arkStep_SetButcherTables.1, i64 0, i64 %37
  %switch.load67 = load i32, ptr %switch.gep66, align 4
  br label %38

38:                                               ; preds = %switch.lookup, %23
  %.040.ph = phi i32 [ 9, %23 ], [ %switch.load, %switch.lookup ]
  %.039.ph = phi i32 [ 111, %23 ], [ %switch.load67, %switch.lookup ]
  %39 = tail call ptr @ARKodeButcherTable_LoadERK(i32 noundef %.040.ph) #13
  store ptr %39, ptr %9, align 8, !tbaa !125
  br label %.thread56

switch.lookup68:                                  ; preds = %25
  %40 = zext nneg i32 %switch.tableidx69 to i64
  %switch.gep70 = getelementptr inbounds nuw [5 x i32], ptr @switch.table.arkStep_SetButcherTables.2, i64 0, i64 %40
  %switch.load71 = load i32, ptr %switch.gep70, align 4
  br label %.thread56

.thread56:                                        ; preds = %switch.lookup68, %29, %38
  %.0395358 = phi i32 [ %.039.ph, %38 ], [ 111, %29 ], [ %switch.load71, %switch.lookup68 ]
  %41 = tail call ptr @ARKodeButcherTable_LoadDIRK(i32 noundef %.0395358) #13
  store ptr %41, ptr %12, align 8, !tbaa !124
  %.pre64 = load ptr, ptr %9, align 8, !tbaa !125
  br label %42

42:                                               ; preds = %.thread60, %.thread56
  %43 = phi ptr [ %35, %.thread60 ], [ %.pre64, %.thread56 ]
  call void @ARKodeButcherTable_Space(ptr noundef %43, ptr noundef nonnull %3, ptr noundef nonnull %2) #13
  %44 = load i64, ptr %3, align 8, !tbaa !190
  %45 = getelementptr inbounds nuw i8, ptr %0, i64 880
  %46 = load i64, ptr %45, align 8, !tbaa !87
  %47 = add nsw i64 %46, %44
  store i64 %47, ptr %45, align 8, !tbaa !87
  %48 = load i64, ptr %2, align 8, !tbaa !190
  %49 = getelementptr inbounds nuw i8, ptr %0, i64 872
  %50 = load i64, ptr %49, align 8, !tbaa !88
  %51 = add nsw i64 %50, %48
  store i64 %51, ptr %49, align 8, !tbaa !88
  %52 = load ptr, ptr %12, align 8, !tbaa !124
  call void @ARKodeButcherTable_Space(ptr noundef %52, ptr noundef nonnull %3, ptr noundef nonnull %2) #13
  %53 = load i64, ptr %3, align 8, !tbaa !190
  %54 = load i64, ptr %45, align 8, !tbaa !87
  %55 = add nsw i64 %54, %53
  store i64 %55, ptr %45, align 8, !tbaa !87
  %56 = load i64, ptr %2, align 8, !tbaa !190
  %57 = load i64, ptr %49, align 8, !tbaa !88
  %58 = add nsw i64 %57, %56
  store i64 %58, ptr %49, align 8, !tbaa !88
  %59 = load ptr, ptr %9, align 8, !tbaa !125
  %.not48 = icmp eq ptr %59, null
  br i1 %.not48, label %69, label %60

60:                                               ; preds = %42
  %61 = getelementptr inbounds nuw i8, ptr %59, i64 8
  %62 = load i32, ptr %61, align 8, !tbaa !207
  %63 = getelementptr inbounds nuw i8, ptr %5, i64 100
  store i32 %62, ptr %63, align 4, !tbaa !140
  %64 = load i32, ptr %59, align 8, !tbaa !126
  %65 = getelementptr inbounds nuw i8, ptr %5, i64 88
  store i32 %64, ptr %65, align 8, !tbaa !135
  %66 = getelementptr inbounds nuw i8, ptr %59, i64 4
  %67 = load i32, ptr %66, align 4, !tbaa !133
  %68 = getelementptr inbounds nuw i8, ptr %5, i64 92
  store i32 %67, ptr %68, align 4, !tbaa !136
  br label %69

69:                                               ; preds = %60, %42
  %70 = load ptr, ptr %12, align 8, !tbaa !124
  %.not49 = icmp eq ptr %70, null
  br i1 %.not49, label %80, label %71

71:                                               ; preds = %69
  %72 = getelementptr inbounds nuw i8, ptr %70, i64 8
  %73 = load i32, ptr %72, align 8, !tbaa !207
  %74 = getelementptr inbounds nuw i8, ptr %5, i64 100
  store i32 %73, ptr %74, align 4, !tbaa !140
  %75 = load i32, ptr %70, align 8, !tbaa !126
  %76 = getelementptr inbounds nuw i8, ptr %5, i64 88
  store i32 %75, ptr %76, align 8, !tbaa !135
  %77 = getelementptr inbounds nuw i8, ptr %70, i64 4
  %78 = load i32, ptr %77, align 4, !tbaa !133
  %79 = getelementptr inbounds nuw i8, ptr %5, i64 92
  store i32 %78, ptr %79, align 4, !tbaa !136
  br label %80

80:                                               ; preds = %69, %71, %8, %11, %7
  %.0 = phi i32 [ -21, %7 ], [ 0, %11 ], [ 0, %8 ], [ 0, %71 ], [ 0, %69 ]
  call void @llvm.lifetime.end.p0(i64 8, ptr nonnull %3) #13
  call void @llvm.lifetime.end.p0(i64 8, ptr nonnull %2) #13
  ret i32 %.0
}